target datalayout = "e-m:e-p270:32:32-p271:32:32-p272:64:64-i64:64-i128:128-f80:128-n8:16:32:64-S128"
target triple = "x86_64-unknown-linux-gnu"

%"class.folly::Indestructible" = type { %"struct.folly::Indestructible<proxygen::StaticHeaderTable>::Storage" }
%"struct.folly::Indestructible<proxygen::StaticHeaderTable>::Storage" = type { %"union.std::aligned_storage<80, 8>::type" }
%"union.std::aligned_storage<80, 8>::type" = type { [80 x i8] }

@_ZZN8proxygen17StaticHeaderTable3getEvE5table = internal global %"class.folly::Indestructible" zeroinitializer, align 8
@_ZGVZN8proxygen17StaticHeaderTable3getEvE5table = internal global i64 0, align 8
@_ZN12_GLOBAL__N_112kEntriesSizeE = internal constant i32 61, align 4
@_ZN8proxygen17StaticHeaderTableC1EPA2_PKci = unnamed_addr alias void (ptr, ptr, i32), ptr @_ZN8proxygen17StaticHeaderTableC2EPA2_PKci

; Function Attrs: mustprogress nounwind uwtable
define linkonce_odr noundef ptr @_ZNK5folly14IndestructibleIN8proxygen17StaticHeaderTableEE3getEv(ptr noundef nonnull align 8 dereferenceable(80) %this) #4 comdat align 2 {
entry:
  %this.addr = alloca ptr, align 8
  store ptr %this, ptr %this.addr, align 8
  %this1 = load ptr, ptr %this.addr, align 8
  %storage_ = getelementptr inbounds %"class.folly::Indestructible", ptr %this1, i32 0, i32 0
  %bytes = getelementptr inbounds %"struct.folly::Indestructible<proxygen::StaticHeaderTable>::Storage", ptr %storage_, i32 0, i32 0
  ret ptr %bytes
}

; Function Attrs: mustprogress uwtable
define linkonce_odr void @_ZN5folly14IndestructibleIN8proxygen17StaticHeaderTableEE7StorageC2IJRA61_A2_PKcRKiES2_EESt10in_place_tDpOT_(ptr noundef nonnull align 8 dereferenceable(80) %this, ptr noundef nonnull align 8 dereferenceable(976) %args, ptr noundef nonnull align 4 dereferenceable(4) %args1) unnamed_addr #5 comdat align 2 {
entry:
  %this.addr = alloca ptr, align 8
  %args.addr = alloca ptr, align 8
  %args.addr2 = alloca ptr, align 8
  store ptr %this, ptr %this.addr, align 8
  store ptr %args, ptr %args.addr, align 8
  store ptr %args1, ptr %args.addr2, align 8
  %this3 = load ptr, ptr %this.addr, align 8
  %bytes4 = getelementptr inbounds %"struct.folly::Indestructible<proxygen::StaticHeaderTable>::Storage", ptr %this3, i32 0, i32 0
  %0 = load ptr, ptr %args.addr, align 8
  %arraydecay = getelementptr inbounds [61 x [2 x ptr]], ptr %0, i64 0, i64 0
  %1 = load ptr, ptr %args.addr2, align 8
  %2 = load i32, ptr %1, align 4
  call void @_ZN8proxygen17StaticHeaderTableC1EPA2_PKci(ptr noundef nonnull align 8 dereferenceable(80) %bytes4, ptr noundef %arraydecay, i32 noundef %2)
  ret void
}

; Function Attrs: mustprogress nounwind uwtable
define linkonce_odr noundef nonnull align 8 dereferenceable(80) ptr @_ZNK5folly14IndestructibleIN8proxygen17StaticHeaderTableEEdeEv(ptr noundef nonnull align 8 dereferenceable(80) %this) #4 comdat align 2 {
entry:
  %this.addr = alloca ptr, align 8
  store ptr %this, ptr %this.addr, align 8
  %this1 = load ptr, ptr %this.addr, align 8
  %call = call noundef ptr @_ZNK5folly14IndestructibleIN8proxygen17StaticHeaderTableEE3getEv(ptr noundef nonnull align 8 dereferenceable(80) %this1) #3
  ret ptr %call
}

; Function Attrs: mustprogress uwtable
define linkonce_odr void @_ZN5folly14IndestructibleIN8proxygen17StaticHeaderTableEEC2IJRA61_A2_PKcRKiES2_EEDpOT_(ptr noundef nonnull align 8 dereferenceable(80) %this, ptr noundef nonnull align 8 dereferenceable(976) %args, ptr noundef nonnull align 4 dereferenceable(4) %args1) unnamed_addr #5 comdat align 2 {
entry:
  %this.addr = alloca ptr, align 8
  %args.addr = alloca ptr, align 8
  %args.addr2 = alloca ptr, align 8
  store ptr %this, ptr %this.addr, align 8
  store ptr %args, ptr %args.addr, align 8
  store ptr %args1, ptr %args.addr2, align 8
  %this3 = load ptr, ptr %this.addr, align 8
  %storage_ = getelementptr inbounds %"class.folly::Indestructible", ptr %this3, i32 0, i32 0
  %0 = load ptr, ptr %args.addr, align 8
  %1 = load ptr, ptr %args.addr2, align 8
  call void @_ZN5folly14IndestructibleIN8proxygen17StaticHeaderTableEE7StorageC2IJRA61_A2_PKcRKiES2_EESt10in_place_tDpOT_(ptr noundef nonnull align 8 dereferenceable(80) %storage_, ptr noundef nonnull align 8 dereferenceable(976) %0, ptr noundef nonnull align 4 dereferenceable(4) %1)
  ret void
}

; Function Attrs: mustprogress uwtable
define noundef nonnull align 8 dereferenceable(80) ptr @_ZN8proxygen17StaticHeaderTable3getEv() #5 align 2 personality ptr @__gxx_personality_v0 {
entry:
  %exn.slot = alloca ptr, align 8
  %ehselector.slot = alloca i32, align 4
  %0 = load atomic i8, ptr @_ZGVZN8proxygen17StaticHeaderTable3getEvE5table acquire, align 8
  %guard.uninitialized = icmp eq i8 %0, 0
  br i1 %guard.uninitialized, label %init.check, label %init.end, !prof !6

init.check:                                       ; preds = %entry
  %1 = call i32 @__cxa_guard_acquire(ptr @_ZGVZN8proxygen17StaticHeaderTable3getEvE5table) #3
  %tobool = icmp ne i32 %1, 0
  br i1 %tobool, label %init, label %init.end

init:                                             ; preds = %init.check
  invoke void @_ZN5folly14IndestructibleIN8proxygen17StaticHeaderTableEEC2IJRA61_A2_PKcRKiES2_EEDpOT_(ptr noundef nonnull align 8 dereferenceable(80) @_ZZN8proxygen17StaticHeaderTable3getEvE5table, ptr noundef nonnull align 8 dereferenceable(976) @_ZN12_GLOBAL__N_114s_tableEntriesE, ptr noundef nonnull align 4 dereferenceable(4) @_ZN12_GLOBAL__N_112kEntriesSizeE)
          to label %invoke.cont unwind label %lpad

invoke.cont:                                      ; preds = %init
  call void @__cxa_guard_release(ptr @_ZGVZN8proxygen17StaticHeaderTable3getEvE5table) #3
  br label %init.end

init.end:                                         ; preds = %invoke.cont, %init.check, %entry
  %call = call noundef nonnull align 8 dereferenceable(80) ptr @_ZNK5folly14IndestructibleIN8proxygen17StaticHeaderTableEEdeEv(ptr noundef nonnull align 8 dereferenceable(80) @_ZZN8proxygen17StaticHeaderTable3getEvE5table) #3
  ret ptr %call

lpad:                                             ; preds = %init
  %2 = landingpad { ptr, i32 }
          cleanup
  %3 = extractvalue { ptr, i32 } %2, 0
  store ptr %3, ptr %exn.slot, align 8
  %4 = extractvalue { ptr, i32 } %2, 1
  store i32 %4, ptr %ehselector.slot, align 4
  call void @__cxa_guard_abort(ptr @_ZGVZN8proxygen17StaticHeaderTable3getEvE5table) #3
  br label %eh.resume

eh.resume:                                        ; preds = %lpad
  %exn = load ptr, ptr %exn.slot, align 8
  %sel = load i32, ptr %ehselector.slot, align 4
  %lpad.val = insertvalue { ptr, i32 } poison, ptr %exn, 0
  %lpad.val1 = insertvalue { ptr, i32 } %lpad.val, i32 %sel, 1
  resume { ptr, i32 } %lpad.val1
}