; Function Attrs: mustprogress uwtable
define noundef nonnull align 8 dereferenceable(80) ptr @_ZN8proxygen17StaticHeaderTable3getEv() local_unnamed_addr #4 align 2 personality ptr @__gxx_personality_v0 {
entry:
  %0 = load atomic i8, ptr @_ZGVZN8proxygen17StaticHeaderTable3getEvE5table acquire, align 8
  %guard.uninitialized = icmp eq i8 %0, 0
  br i1 %guard.uninitialized, label %init.check, label %init.end, !prof !9

init.check:                                       ; preds = %entry
  %1 = tail call i32 @__cxa_guard_acquire(ptr nonnull @_ZGVZN8proxygen17StaticHeaderTable3getEvE5table) #22
  %tobool.not = icmp eq i32 %1, 0
  br i1 %tobool.not, label %init.end, label %init

init:                                             ; preds = %init.check
  invoke void @_ZN8proxygen17StaticHeaderTableC1EPA2_PKci(ptr noundef nonnull align 8 dereferenceable(80) @_ZZN8proxygen17StaticHeaderTable3getEvE5table, ptr noundef nonnull @_ZN12_GLOBAL__N_114s_tableEntriesE, i32 noundef 61)
          to label %invoke.cont unwind label %lpad

invoke.cont:                                      ; preds = %init
  tail call void @__cxa_guard_release(ptr nonnull @_ZGVZN8proxygen17StaticHeaderTable3getEvE5table) #22
  br label %init.end

init.end:                                         ; preds = %invoke.cont, %init.check, %entry
  ret ptr @_ZZN8proxygen17StaticHeaderTable3getEvE5table

lpad:                                             ; preds = %init
  %2 = landingpad { ptr, i32 }
          cleanup
  tail call void @__cxa_guard_abort(ptr nonnull @_ZGVZN8proxygen17StaticHeaderTable3getEvE5table) #22
  resume { ptr, i32 } %2
}